target datalayout = "e-m:e-p270:32:32-p271:32:32-p272:64:64-i64:64-i128:128-f80:128-n8:16:32:64-S128"
target triple = "x86_64-pc-linux-gnu"

%struct.png_info_def = type { i32, i32, i32, i64, ptr, i16, i16, i8, i8, i8, i8, i8, i8, i8, i8, [8 x i8], %struct.png_colorspace, ptr, ptr, i32, i32, i32, ptr, %struct.png_time_struct, %struct.png_color_8_struct, ptr, %struct.png_color_16_struct, %struct.png_color_16_struct, i32, i32, i8, i32, i32, i8, i32, ptr, ptr, ptr, ptr, i32, i32, ptr, ptr, i8, i8, i32, ptr, i32, ptr, i32, i8, ptr, ptr, ptr }
%struct.png_colorspace = type { i32, %struct.png_xy, %struct.png_XYZ, i16, i16 }
%struct.png_xy = type { i32, i32, i32, i32, i32, i32, i32, i32 }
%struct.png_XYZ = type { i32, i32, i32, i32, i32, i32, i32, i32, i32 }
%struct.png_time_struct = type { i16, i8, i8, i8, i8, i8 }
%struct.png_color_8_struct = type { i8, i8, i8, i8, i8 }
%struct.png_color_16_struct = type { i8, i16, i16, i16, i16 }
%struct.png_struct_def = type { [1 x %struct.__jmp_buf_tag], ptr, ptr, i64, ptr, ptr, ptr, ptr, ptr, ptr, ptr, ptr, ptr, i8, i8, i32, i32, i32, i32, %struct.z_stream_s, ptr, i32, i32, i32, i32, i32, i32, i32, i32, i32, i32, i32, i32, i32, i32, i32, i32, i32, i32, i32, i32, i64, i32, i32, i32, ptr, ptr, ptr, ptr, i64, i32, i32, ptr, i16, i32, i16, i8, i8, i8, i8, i8, i8, i8, i8, i8, i8, i8, i8, i8, i8, i8, i16, i8, i32, %struct.png_color_16_struct, %struct.png_color_16_struct, ptr, i32, i32, i32, i32, ptr, ptr, ptr, ptr, ptr, ptr, %struct.png_color_8_struct, %struct.png_color_8_struct, ptr, %struct.png_color_16_struct, ptr, ptr, ptr, ptr, ptr, ptr, ptr, ptr, ptr, i32, i32, i64, i64, i64, i64, i32, i32, ptr, ptr, i32, [29 x i8], i32, ptr, ptr, i32, i32, ptr, i8, i8, i16, i16, ptr, i32, i8, ptr, ptr, ptr, ptr, ptr, ptr, ptr, i8, i32, i32, i32, i64, %struct.png_unknown_chunk_t, i64, ptr, i64, i32, i32, ptr, [4 x ptr], %struct.png_colorspace }
%struct.__jmp_buf_tag = type { [8 x i64], i32, %struct.__sigset_t }
%struct.__sigset_t = type { [16 x i64] }
%struct.z_stream_s = type { ptr, i32, i64, ptr, i32, i64, ptr, ptr, ptr, ptr, ptr, i32, i64, i64 }
%struct.png_unknown_chunk_t = type { [5 x i8], ptr, i64, i8 }

@.str.29 = private unnamed_addr constant [23 x i8] c"Invalid palette length\00", align 1
@.str.30 = private unnamed_addr constant [16 x i8] c"Invalid palette\00", align 1

; Function Attrs: nounwind uwtable
define void @png_set_PLTE(ptr noalias noundef %0, ptr noalias noundef %1, ptr noundef %2, i32 noundef %3) #0 {
  %5 = alloca ptr, align 8
  %6 = alloca ptr, align 8
  %7 = alloca ptr, align 8
  %8 = alloca i32, align 4
  %9 = alloca i32, align 4
  store ptr %0, ptr %5, align 8
  store ptr %1, ptr %6, align 8
  store ptr %2, ptr %7, align 8
  store i32 %3, ptr %8, align 4
  %10 = load ptr, ptr %5, align 8
  %11 = icmp eq ptr %10, null
  br i1 %11, label %15, label %12

12:                                               ; preds = %4
  %13 = load ptr, ptr %6, align 8
  %14 = icmp eq ptr %13, null
  br i1 %14, label %15, label %16

15:                                               ; preds = %12, %4
  br label %101

16:                                               ; preds = %12
  %17 = load ptr, ptr %6, align 8
  %18 = getelementptr inbounds %struct.png_info_def, ptr %17, i32 0, i32 8
  %19 = load i8, ptr %18, align 1
  %20 = zext i8 %19 to i32
  %21 = icmp eq i32 %20, 3
  br i1 %21, label %22, label %28

22:                                               ; preds = %16
  %23 = load ptr, ptr %6, align 8
  %24 = getelementptr inbounds %struct.png_info_def, ptr %23, i32 0, i32 7
  %25 = load i8, ptr %24, align 4
  %26 = zext i8 %25 to i32
  %27 = shl i32 1, %26
  br label %29

28:                                               ; preds = %16
  br label %29

29:                                               ; preds = %28, %22
  %30 = phi i32 [ %27, %22 ], [ 256, %28 ]
  store i32 %30, ptr %9, align 4
  %31 = load i32, ptr %8, align 4
  %32 = icmp slt i32 %31, 0
  br i1 %32, label %37, label %33

33:                                               ; preds = %29
  %34 = load i32, ptr %8, align 4
  %35 = load i32, ptr %9, align 4
  %36 = icmp sgt i32 %34, %35
  br i1 %36, label %37, label %47

37:                                               ; preds = %33, %29
  %38 = load ptr, ptr %6, align 8
  %39 = getelementptr inbounds %struct.png_info_def, ptr %38, i32 0, i32 8
  %40 = load i8, ptr %39, align 1
  %41 = zext i8 %40 to i32
  %42 = icmp eq i32 %41, 3
  br i1 %42, label %43, label %45

43:                                               ; preds = %37
  %44 = load ptr, ptr %5, align 8
  call void @png_error(ptr noundef %44, ptr noundef @.str.29) #7
  unreachable

45:                                               ; preds = %37
  %46 = load ptr, ptr %5, align 8
  call void @png_warning(ptr noundef %46, ptr noundef @.str.29)
  br label %101

47:                                               ; preds = %33
  %48 = load i32, ptr %8, align 4
  %49 = icmp sgt i32 %48, 0
  br i1 %49, label %50, label %53

50:                                               ; preds = %47
  %51 = load ptr, ptr %7, align 8
  %52 = icmp eq ptr %51, null
  br i1 %52, label %62, label %53

53:                                               ; preds = %50, %47
  %54 = load i32, ptr %8, align 4
  %55 = icmp eq i32 %54, 0
  br i1 %55, label %56, label %64

56:                                               ; preds = %53
  %57 = load ptr, ptr %5, align 8
  %58 = getelementptr inbounds %struct.png_struct_def, ptr %57, i32 0, i32 123
  %59 = load i32, ptr %58, align 8
  %60 = and i32 %59, 1
  %61 = icmp eq i32 %60, 0
  br i1 %61, label %62, label %64

62:                                               ; preds = %56, %50
  %63 = load ptr, ptr %5, align 8
  call void @png_error(ptr noundef %63, ptr noundef @.str.30) #7
  unreachable

64:                                               ; preds = %56, %53
  %65 = load ptr, ptr %5, align 8
  %66 = load ptr, ptr %6, align 8
  call void @png_free_data(ptr noundef %65, ptr noundef %66, i32 noundef 4096, i32 noundef 0)
  %67 = load ptr, ptr %5, align 8
  %68 = call noalias ptr @png_calloc(ptr noundef %67, i64 noundef 768)
  %69 = load ptr, ptr %5, align 8
  %70 = getelementptr inbounds %struct.png_struct_def, ptr %69, i32 0, i32 52
  store ptr %68, ptr %70, align 8
  %71 = load i32, ptr %8, align 4
  %72 = icmp sgt i32 %71, 0
  br i1 %72, label %73, label %81

73:                                               ; preds = %64
  %74 = load ptr, ptr %5, align 8
  %75 = getelementptr inbounds %struct.png_struct_def, ptr %74, i32 0, i32 52
  %76 = load ptr, ptr %75, align 8
  %77 = load ptr, ptr %7, align 8
  %78 = load i32, ptr %8, align 4
  %79 = zext i32 %78 to i64
  %80 = mul i64 %79, 3
  call void @llvm.memcpy.p0.p0.i64(ptr align 1 %76, ptr align 1 %77, i64 %80, i1 false)
  br label %81

81:                                               ; preds = %73, %64
  %82 = load ptr, ptr %5, align 8
  %83 = getelementptr inbounds %struct.png_struct_def, ptr %82, i32 0, i32 52
  %84 = load ptr, ptr %83, align 8
  %85 = load ptr, ptr %6, align 8
  %86 = getelementptr inbounds %struct.png_info_def, ptr %85, i32 0, i32 4
  store ptr %84, ptr %86, align 8
  %87 = load i32, ptr %8, align 4
  %88 = trunc i32 %87 to i16
  %89 = load ptr, ptr %5, align 8
  %90 = getelementptr inbounds %struct.png_struct_def, ptr %89, i32 0, i32 53
  store i16 %88, ptr %90, align 8
  %91 = load ptr, ptr %6, align 8
  %92 = getelementptr inbounds %struct.png_info_def, ptr %91, i32 0, i32 5
  store i16 %88, ptr %92, align 8
  %93 = load ptr, ptr %6, align 8
  %94 = getelementptr inbounds %struct.png_info_def, ptr %93, i32 0, i32 45
  %95 = load i32, ptr %94, align 4
  %96 = or i32 %95, 4096
  store i32 %96, ptr %94, align 4
  %97 = load ptr, ptr %6, align 8
  %98 = getelementptr inbounds %struct.png_info_def, ptr %97, i32 0, i32 2
  %99 = load i32, ptr %98, align 8
  %100 = or i32 %99, 8
  store i32 %100, ptr %98, align 8
  br label %101

101:                                              ; preds = %81, %45, %15
  ret void
}