; Function Attrs: nounwind uwtable
define void @png_set_PLTE(ptr noalias noundef %0, ptr noalias noundef %1, ptr noundef readonly %2, i32 noundef %3) local_unnamed_addr #2 {
  %5 = icmp eq ptr %0, null
  %6 = icmp eq ptr %1, null
  %or.cond = or i1 %5, %6
  br i1 %or.cond, label %48, label %7

7:                                                ; preds = %4
  %8 = getelementptr inbounds i8, ptr %1, i64 37
  %9 = load i8, ptr %8, align 1
  %10 = icmp eq i8 %9, 3
  br i1 %10, label %11, label %.thread

11:                                               ; preds = %7
  %12 = getelementptr inbounds i8, ptr %1, i64 36
  %13 = load i8, ptr %12, align 4
  %14 = zext nneg i8 %13 to i32
  %15 = shl nuw i32 1, %14
  %16 = icmp slt i32 %3, 0
  %17 = icmp slt i32 %15, %3
  %or.cond34 = select i1 %16, i1 true, i1 %17
  br i1 %or.cond34, label %19, label %20

.thread:                                          ; preds = %7
  %18 = icmp ugt i32 %3, 256
  br i1 %18, label %.thread36, label %20

19:                                               ; preds = %11
  tail call void @png_error(ptr noundef nonnull %0, ptr noundef nonnull @.str.29) #14
  unreachable

.thread36:                                        ; preds = %.thread
  tail call void @png_warning(ptr noundef nonnull %0, ptr noundef nonnull @.str.29) #12
  br label %48

20:                                               ; preds = %.thread, %11
  %21 = icmp ne i32 %3, 0
  %22 = icmp eq ptr %2, null
  %or.cond3 = and i1 %22, %21
  br i1 %or.cond3, label %30, label %23

23:                                               ; preds = %20
  %24 = icmp eq i32 %3, 0
  br i1 %24, label %25, label %31

25:                                               ; preds = %23
  %26 = getelementptr inbounds i8, ptr %0, i64 992
  %27 = load i32, ptr %26, align 8
  %28 = and i32 %27, 1
  %29 = icmp eq i32 %28, 0
  br i1 %29, label %30, label %31

30:                                               ; preds = %20, %25
  tail call void @png_error(ptr noundef nonnull %0, ptr noundef nonnull @.str.30) #14
  unreachable

31:                                               ; preds = %25, %23
  tail call void @png_free_data(ptr noundef nonnull %0, ptr noundef nonnull %1, i32 noundef 4096, i32 noundef 0) #12
  %32 = tail call noalias ptr @png_calloc(ptr noundef nonnull %0, i64 noundef 768) #12
  %33 = getelementptr inbounds i8, ptr %0, i64 592
  store ptr %32, ptr %33, align 8
  br i1 %21, label %34, label %37

34:                                               ; preds = %31
  %35 = zext nneg i32 %3 to i64
  %36 = mul nuw nsw i64 %35, 3
  tail call void @llvm.memcpy.p0.p0.i64(ptr align 1 %32, ptr align 1 %2, i64 %36, i1 false)
  br label %37

37:                                               ; preds = %34, %31
  %38 = getelementptr inbounds i8, ptr %1, i64 24
  store ptr %32, ptr %38, align 8
  %39 = trunc i32 %3 to i16
  %40 = getelementptr inbounds i8, ptr %0, i64 600
  store i16 %39, ptr %40, align 8
  %41 = getelementptr inbounds i8, ptr %1, i64 32
  store i16 %39, ptr %41, align 8
  %42 = getelementptr inbounds i8, ptr %1, i64 300
  %43 = load i32, ptr %42, align 4
  %44 = or i32 %43, 4096
  store i32 %44, ptr %42, align 4
  %45 = getelementptr inbounds i8, ptr %1, i64 8
  %46 = load i32, ptr %45, align 8
  %47 = or i32 %46, 8
  store i32 %47, ptr %45, align 8
  br label %48

48:                                               ; preds = %4, %37, %.thread36
  ret void
}